target datalayout = "e-m:e-p270:32:32-p271:32:32-p272:64:64-i64:64-i128:128-f80:128-n8:16:32:64-S128"
target triple = "x86_64-pc-linux-gnu"

%struct._quic_stream_info = type { i64, i64, i32, i32, ptr, i8 }
%struct._quic_stream_state = type { i64, ptr, ptr }

; Function Attrs: null_pointer_is_valid sspstrong uwtable
define hidden void @quic_stream_add_proto_data(ptr noundef %0, ptr noundef %1, ptr noundef %2) #0 {
  %4 = alloca ptr, align 8
  %5 = alloca ptr, align 8
  %6 = alloca ptr, align 8
  %7 = alloca ptr, align 8
  store ptr %0, ptr %4, align 8
  store ptr %1, ptr %5, align 8
  store ptr %2, ptr %6, align 8
  call void @llvm.lifetime.start.p0(i64 8, ptr %7) #19
  %8 = load ptr, ptr %4, align 8
  %9 = load ptr, ptr %5, align 8
  %10 = getelementptr inbounds nuw %struct._quic_stream_info, ptr %9, i32 0, i32 4
  %11 = load ptr, ptr %10, align 8
  %12 = load ptr, ptr %5, align 8
  %13 = getelementptr inbounds nuw %struct._quic_stream_info, ptr %12, i32 0, i32 5
  %14 = load i8, ptr %13, align 8, !range !6, !noundef !7
  %15 = trunc i8 %14 to i1
  %16 = load ptr, ptr %5, align 8
  %17 = getelementptr inbounds nuw %struct._quic_stream_info, ptr %16, i32 0, i32 0
  %18 = load i64, ptr %17, align 8
  %19 = call ptr @quic_get_stream_state(ptr noundef %8, ptr noundef %11, i1 noundef zeroext %15, i64 noundef %18)
  store ptr %19, ptr %7, align 8
  %20 = load ptr, ptr %6, align 8
  %21 = load ptr, ptr %7, align 8
  %22 = getelementptr inbounds nuw %struct._quic_stream_state, ptr %21, i32 0, i32 2
  store ptr %20, ptr %22, align 8
  call void @llvm.lifetime.end.p0(i64 8, ptr %7) #19
  ret void
}