; Function Attrs: null_pointer_is_valid sspstrong uwtable
define hidden void @quic_stream_add_proto_data(ptr noundef readonly captures(none) %0, ptr noundef readonly captures(none) %1, ptr noundef %2) local_unnamed_addr #0 {
  %4 = getelementptr inbounds nuw i8, ptr %1, i64 24
  %5 = load ptr, ptr %4, align 8
  %6 = getelementptr inbounds nuw i8, ptr %1, i64 32
  %7 = load i8, ptr %6, align 8, !range !6, !noundef !7
  %8 = trunc nuw i8 %7 to i1
  %9 = load i64, ptr %1, align 8
  %10 = getelementptr i8, ptr %0, i64 80
  %.val = load ptr, ptr %10, align 8
  %11 = getelementptr i8, ptr %.val, i64 57
  %.val.val = load i16, ptr %11, align 1
  %12 = tail call fastcc ptr @quic_get_stream_state(i16 %.val.val, ptr noundef %5, i1 noundef zeroext %8, i64 noundef %9)
  %13 = getelementptr inbounds nuw i8, ptr %12, i64 16
  store ptr %2, ptr %13, align 8
  ret void
}